; ModuleID = 'source-C-CXX/55/868.c'
source_filename = "source-C-CXX/55/868.c"
target datalayout = "e-m:e-p270:32:32-p271:32:32-p272:64:64-i64:64-f80:128-n8:16:32:64-S128"
target triple = "x86_64-pc-linux-gnu"

@.str = private unnamed_addr constant [3 x i8] c"%c\00", align 1

; Function Attrs: nofree nounwind sspstrong uwtable
define dso_local void @main() local_unnamed_addr #0 {
  %1 = alloca [5 x i8], align 4
  %2 = getelementptr inbounds [5 x i8], [5 x i8]* %1, i64 0, i64 0
  call void @llvm.lifetime.start.p0i8(i64 5, i8* nonnull %2) #5
  %3 = call i32 (i8*, ...) @__isoc99_scanf(i8* getelementptr inbounds ([3 x i8], [3 x i8]* @.str, i64 0, i64 0), i8* nonnull %2)
  %4 = getelementptr inbounds [5 x i8], [5 x i8]* %1, i64 0, i64 1
  %5 = call i32 (i8*, ...) @__isoc99_scanf(i8* getelementptr inbounds ([3 x i8], [3 x i8]* @.str, i64 0, i64 0), i8* nonnull %4)
  %6 = getelementptr inbounds [5 x i8], [5 x i8]* %1, i64 0, i64 2
  %7 = call i32 (i8*, ...) @__isoc99_scanf(i8* getelementptr inbounds ([3 x i8], [3 x i8]* @.str, i64 0, i64 0), i8* nonnull %6)
  %8 = getelementptr inbounds [5 x i8], [5 x i8]* %1, i64 0, i64 3
  %9 = call i32 (i8*, ...) @__isoc99_scanf(i8* getelementptr inbounds ([3 x i8], [3 x i8]* @.str, i64 0, i64 0), i8* nonnull %8)
  %10 = getelementptr inbounds [5 x i8], [5 x i8]* %1, i64 0, i64 4
  %11 = call i32 (i8*, ...) @__isoc99_scanf(i8* getelementptr inbounds ([3 x i8], [3 x i8]* @.str, i64 0, i64 0), i8* nonnull %10)
  %12 = bitcast [5 x i8]* %1 to <4 x i8>*
  %13 = load <4 x i8>, <4 x i8>* %12, align 4, !tbaa !5
  %14 = icmp ne <4 x i8> %13, <i8 10, i8 10, i8 10, i8 10>
  %15 = load i8, i8* %10, align 4, !tbaa !5
  %16 = icmp ne i8 %15, 10
  %17 = zext i1 %16 to i8
  %18 = bitcast <4 x i1> %14 to i4
  %19 = call i4 @llvm.ctpop.i4(i4 %18), !range !8
  %20 = zext i4 %19 to i8
  %21 = add nuw nsw i8 %20, %17
  %22 = icmp eq i8 %21, 0
  br i1 %22, label %32, label %23

23:                                               ; preds = %0, %23
  %24 = phi i8 [ %25, %23 ], [ %21, %0 ]
  %25 = add nsw i8 %24, -1
  %26 = zext i8 %25 to i64
  %27 = getelementptr inbounds [5 x i8], [5 x i8]* %1, i64 0, i64 %26
  %28 = load i8, i8* %27, align 1, !tbaa !5
  %29 = sext i8 %28 to i32
  %30 = call i32 @putchar(i32 %29)
  %31 = icmp sgt i8 %24, 1
  br i1 %31, label %23, label %32, !llvm.loop !9

32:                                               ; preds = %23, %0
  call void @llvm.lifetime.end.p0i8(i64 5, i8* nonnull %2) #5
  ret void
}

; Function Attrs: argmemonly mustprogress nofree nosync nounwind willreturn
declare void @llvm.lifetime.start.p0i8(i64 immarg, i8* nocapture) #1

; Function Attrs: nofree nounwind
declare noundef i32 @__isoc99_scanf(i8* nocapture noundef readonly, ...) local_unnamed_addr #2

; Function Attrs: argmemonly mustprogress nofree nosync nounwind willreturn
declare void @llvm.lifetime.end.p0i8(i64 immarg, i8* nocapture) #1

; Function Attrs: nofree nounwind
declare noundef i32 @putchar(i32 noundef) local_unnamed_addr #3

; Function Attrs: nofree nosync nounwind readnone speculatable willreturn
declare i4 @llvm.ctpop.i4(i4) #4


!llvm.module.flags = !{!0, !1, !2, !3}
!llvm.ident = !{!4}

!0 = !{i32 1, !"wchar_size", i32 4}
!1 = !{i32 7, !"PIC Level", i32 2}
!2 = !{i32 7, !"PIE Level", i32 2}
!3 = !{i32 7, !"uwtable", i32 1}
!4 = !{!"clang version 13.0.0"}
!5 = !{!6, !6, i64 0}
!6 = !{!"omnipotent char", !7, i64 0}
!7 = !{!"Simple C/C++ TBAA"}
!8 = !{i4 0, i4 5}
!9 = distinct !{!9, !10}
!10 = !{!"llvm.loop.mustprogress"}
